target datalayout = "e-m:e-p270:32:32-p271:32:32-p272:64:64-i64:64-i128:128-f80:128-n8:16:32:64-S128"
target triple = "x86_64-pc-linux-gnu"

%struct.FullTransactionId = type { i64 }
%struct.FunctionCallInfoBaseData = type { ptr, ptr, ptr, i32, i8, i16, [0 x %struct.NullableDatum] }
%struct.NullableDatum = type { i64, i8 }
%struct.pg_snapshot = type { i32, i32, %struct.FullTransactionId, %struct.FullTransactionId, [0 x %struct.FullTransactionId] }
%struct.anon = type { i32, [0 x i8] }
%struct.FmgrInfo = type { ptr, i32, i16, i8, i8, i8, ptr, ptr, ptr }
%struct.FuncCallContext = type { i64, i64, ptr, ptr, ptr, ptr }
%struct.ReturnSetInfo = type { i32, ptr, ptr, i32, i32, i32, ptr, ptr }

; Function Attrs: inlinehint nounwind uwtable
define internal i64 @UInt64GetDatum(i64 noundef %0) #2 {
  %2 = alloca i64, align 8
  store i64 %0, ptr %2, align 8
  %3 = load i64, ptr %2, align 8
  ret i64 %3
}

; Function Attrs: inlinehint nounwind uwtable
define internal i64 @FullTransactionIdGetDatum(i64 %0) #2 {
  %2 = alloca %struct.FullTransactionId, align 8
  %3 = getelementptr inbounds nuw %struct.FullTransactionId, ptr %2, i32 0, i32 0
  store i64 %0, ptr %3, align 8
  %4 = getelementptr inbounds nuw %struct.FullTransactionId, ptr %2, i32 0, i32 0
  %5 = load i64, ptr %4, align 8
  %6 = call i64 @UInt64GetDatum(i64 noundef %5)
  ret i64 %6
}

; Function Attrs: inlinehint nounwind uwtable
define internal ptr @DatumGetPointer(i64 noundef %0) #2 {
  %2 = alloca i64, align 8
  store i64 %0, ptr %2, align 8
  %3 = load i64, ptr %2, align 8
  %4 = inttoptr i64 %3 to ptr
  ret ptr %4
}

; Function Attrs: nounwind uwtable
define dso_local i64 @pg_snapshot_xip(ptr noundef %0) #0 {
  %2 = alloca i64, align 8
  %3 = alloca ptr, align 8
  %4 = alloca ptr, align 8
  %5 = alloca ptr, align 8
  %6 = alloca %struct.FullTransactionId, align 8
  %7 = alloca ptr, align 8
  %8 = alloca ptr, align 8
  %9 = alloca i32, align 4
  %10 = alloca ptr, align 8
  store ptr %0, ptr %3, align 8
  call void @llvm.lifetime.start.p0(i64 8, ptr %4) #9
  call void @llvm.lifetime.start.p0(i64 8, ptr %5) #9
  call void @llvm.lifetime.start.p0(i64 8, ptr %6) #9
  %11 = load ptr, ptr %3, align 8
  %12 = getelementptr inbounds nuw %struct.FunctionCallInfoBaseData, ptr %11, i32 0, i32 0
  %13 = load ptr, ptr %12, align 8
  %14 = getelementptr inbounds nuw %struct.FmgrInfo, ptr %13, i32 0, i32 6
  %15 = load ptr, ptr %14, align 8
  %16 = icmp eq ptr %15, null
  br i1 %16, label %17, label %48

17:                                               ; preds = %1
  call void @llvm.lifetime.start.p0(i64 8, ptr %7) #9
  %18 = load ptr, ptr %3, align 8
  %19 = getelementptr inbounds nuw %struct.FunctionCallInfoBaseData, ptr %18, i32 0, i32 6
  %20 = getelementptr inbounds [0 x %struct.NullableDatum], ptr %19, i64 0, i64 0
  %21 = getelementptr inbounds nuw %struct.NullableDatum, ptr %20, i32 0, i32 0
  %22 = load i64, ptr %21, align 8
  %23 = call ptr @DatumGetPointer(i64 noundef %22)
  %24 = call ptr @pg_detoast_datum(ptr noundef %23)
  store ptr %24, ptr %7, align 8
  %25 = load ptr, ptr %3, align 8
  %26 = call ptr @init_MultiFuncCall(ptr noundef %25)
  store ptr %26, ptr %4, align 8
  %27 = load ptr, ptr %4, align 8
  %28 = getelementptr inbounds nuw %struct.FuncCallContext, ptr %27, i32 0, i32 4
  %29 = load ptr, ptr %28, align 8
  %30 = load ptr, ptr %7, align 8
  %31 = getelementptr inbounds nuw %struct.anon, ptr %30, i32 0, i32 0
  %32 = load i32, ptr %31, align 4
  %33 = lshr i32 %32, 2
  %34 = and i32 %33, 1073741823
  %35 = zext i32 %34 to i64
  %36 = call ptr @MemoryContextAlloc(ptr noundef %29, i64 noundef %35)
  store ptr %36, ptr %5, align 8
  %37 = load ptr, ptr %5, align 8
  %38 = load ptr, ptr %7, align 8
  %39 = load ptr, ptr %7, align 8
  %40 = getelementptr inbounds nuw %struct.anon, ptr %39, i32 0, i32 0
  %41 = load i32, ptr %40, align 4
  %42 = lshr i32 %41, 2
  %43 = and i32 %42, 1073741823
  %44 = zext i32 %43 to i64
  call void @llvm.memcpy.p0.p0.i64(ptr align 8 %37, ptr align 8 %38, i64 %44, i1 false)
  %45 = load ptr, ptr %5, align 8
  %46 = load ptr, ptr %4, align 8
  %47 = getelementptr inbounds nuw %struct.FuncCallContext, ptr %46, i32 0, i32 2
  store ptr %45, ptr %47, align 8
  call void @llvm.lifetime.end.p0(i64 8, ptr %7) #9
  br label %48

48:                                               ; preds = %17, %1
  %49 = load ptr, ptr %3, align 8
  %50 = call ptr @per_MultiFuncCall(ptr noundef %49)
  store ptr %50, ptr %4, align 8
  %51 = load ptr, ptr %4, align 8
  %52 = getelementptr inbounds nuw %struct.FuncCallContext, ptr %51, i32 0, i32 2
  %53 = load ptr, ptr %52, align 8
  store ptr %53, ptr %5, align 8
  %54 = load ptr, ptr %4, align 8
  %55 = getelementptr inbounds nuw %struct.FuncCallContext, ptr %54, i32 0, i32 0
  %56 = load i64, ptr %55, align 8
  %57 = load ptr, ptr %5, align 8
  %58 = getelementptr inbounds nuw %struct.pg_snapshot, ptr %57, i32 0, i32 1
  %59 = load i32, ptr %58, align 4
  %60 = zext i32 %59 to i64
  %61 = icmp ult i64 %56, %60
  br i1 %61, label %62, label %84

62:                                               ; preds = %48
  %63 = load ptr, ptr %5, align 8
  %64 = getelementptr inbounds nuw %struct.pg_snapshot, ptr %63, i32 0, i32 4
  %65 = load ptr, ptr %4, align 8
  %66 = getelementptr inbounds nuw %struct.FuncCallContext, ptr %65, i32 0, i32 0
  %67 = load i64, ptr %66, align 8
  %68 = getelementptr inbounds nuw [0 x %struct.FullTransactionId], ptr %64, i64 0, i64 %67
  call void @llvm.memcpy.p0.p0.i64(ptr align 8 %6, ptr align 8 %68, i64 8, i1 false)
  br label %69

69:                                               ; preds = %62
  call void @llvm.lifetime.start.p0(i64 8, ptr %8) #9
  %70 = load ptr, ptr %4, align 8
  %71 = getelementptr inbounds nuw %struct.FuncCallContext, ptr %70, i32 0, i32 0
  %72 = load i64, ptr %71, align 8
  %73 = add i64 %72, 1
  store i64 %73, ptr %71, align 8
  %74 = load ptr, ptr %3, align 8
  %75 = getelementptr inbounds nuw %struct.FunctionCallInfoBaseData, ptr %74, i32 0, i32 2
  %76 = load ptr, ptr %75, align 8
  store ptr %76, ptr %8, align 8
  %77 = load ptr, ptr %8, align 8
  %78 = getelementptr inbounds nuw %struct.ReturnSetInfo, ptr %77, i32 0, i32 5
  store i32 1, ptr %78, align 8
  %79 = getelementptr inbounds nuw %struct.FullTransactionId, ptr %6, i32 0, i32 0
  %80 = load i64, ptr %79, align 8
  %81 = call i64 @FullTransactionIdGetDatum(i64 %80)
  store i64 %81, ptr %2, align 8
  store i32 1, ptr %9, align 4
  call void @llvm.lifetime.end.p0(i64 8, ptr %8) #9
  br label %104

82:                                               ; No predecessors!
  br label %83

83:                                               ; preds = %82
  br label %103

84:                                               ; preds = %48
  br label %85

85:                                               ; preds = %84
  call void @llvm.lifetime.start.p0(i64 8, ptr %10) #9
  %86 = load ptr, ptr %3, align 8
  %87 = load ptr, ptr %4, align 8
  call void @end_MultiFuncCall(ptr noundef %86, ptr noundef %87)
  %88 = load ptr, ptr %3, align 8
  %89 = getelementptr inbounds nuw %struct.FunctionCallInfoBaseData, ptr %88, i32 0, i32 2
  %90 = load ptr, ptr %89, align 8
  store ptr %90, ptr %10, align 8
  %91 = load ptr, ptr %10, align 8
  %92 = getelementptr inbounds nuw %struct.ReturnSetInfo, ptr %91, i32 0, i32 5
  store i32 2, ptr %92, align 8
  br label %93

93:                                               ; preds = %85
  %94 = load ptr, ptr %3, align 8
  %95 = getelementptr inbounds nuw %struct.FunctionCallInfoBaseData, ptr %94, i32 0, i32 4
  store i8 1, ptr %95, align 4
  store i64 0, ptr %2, align 8
  store i32 1, ptr %9, align 4
  br label %98

96:                                               ; No predecessors!
  br label %97

97:                                               ; preds = %96
  store i32 0, ptr %9, align 4
  br label %98

98:                                               ; preds = %97, %93
  call void @llvm.lifetime.end.p0(i64 8, ptr %10) #9
  %99 = load i32, ptr %9, align 4
  switch i32 %99, label %104 [
    i32 0, label %100
  ]

100:                                              ; preds = %98
  br label %101

101:                                              ; preds = %100
  br label %102

102:                                              ; preds = %101
  br label %103

103:                                              ; preds = %102, %83
  store i32 0, ptr %9, align 4
  br label %104

104:                                              ; preds = %103, %98, %69
  call void @llvm.lifetime.end.p0(i64 8, ptr %6) #9
  call void @llvm.lifetime.end.p0(i64 8, ptr %5) #9
  call void @llvm.lifetime.end.p0(i64 8, ptr %4) #9
  %105 = load i32, ptr %9, align 4
  switch i32 %105, label %108 [
    i32 0, label %106
    i32 1, label %106
  ]

106:                                              ; preds = %104, %104
  %107 = load i64, ptr %2, align 8
  ret i64 %107

108:                                              ; preds = %104
  unreachable
}