; Function Attrs: nounwind uwtable
define dso_local i64 @pg_snapshot_xip(ptr noundef %0) local_unnamed_addr #0 {
  %2 = load ptr, ptr %0, align 8
  %3 = getelementptr inbounds nuw i8, ptr %2, i64 24
  %4 = load ptr, ptr %3, align 8
  %5 = icmp eq ptr %4, null
  br i1 %5, label %6, label %22

6:                                                ; preds = %1
  %7 = getelementptr inbounds nuw i8, ptr %0, i64 32
  %8 = load i64, ptr %7, align 8
  %9 = inttoptr i64 %8 to ptr
  %10 = tail call ptr @pg_detoast_datum(ptr noundef %9) #11
  %11 = tail call ptr @init_MultiFuncCall(ptr noundef nonnull %0) #11
  %12 = getelementptr inbounds nuw i8, ptr %11, i64 32
  %13 = load ptr, ptr %12, align 8
  %14 = load i32, ptr %10, align 4
  %15 = lshr i32 %14, 2
  %16 = zext nneg i32 %15 to i64
  %17 = tail call ptr @MemoryContextAlloc(ptr noundef %13, i64 noundef %16) #11
  %18 = load i32, ptr %10, align 4
  %19 = lshr i32 %18, 2
  %20 = zext nneg i32 %19 to i64
  tail call void @llvm.memcpy.p0.p0.i64(ptr align 8 %17, ptr nonnull align 8 %10, i64 %20, i1 false)
  %21 = getelementptr inbounds nuw i8, ptr %11, i64 16
  store ptr %17, ptr %21, align 8
  br label %22

22:                                               ; preds = %6, %1
  %23 = tail call ptr @per_MultiFuncCall(ptr noundef nonnull %0) #11
  %24 = getelementptr inbounds nuw i8, ptr %23, i64 16
  %25 = load ptr, ptr %24, align 8
  %26 = load i64, ptr %23, align 8
  %27 = getelementptr inbounds nuw i8, ptr %25, i64 4
  %28 = load i32, ptr %27, align 4
  %29 = zext i32 %28 to i64
  %30 = icmp ult i64 %26, %29
  br i1 %30, label %31, label %38

31:                                               ; preds = %22
  %32 = getelementptr inbounds nuw i8, ptr %25, i64 24
  %33 = getelementptr inbounds nuw [0 x %struct.FullTransactionId], ptr %32, i64 0, i64 %26
  %.sroa.0.0.copyload = load i64, ptr %33, align 8
  %34 = add nuw nsw i64 %26, 1
  store i64 %34, ptr %23, align 8
  %35 = getelementptr inbounds nuw i8, ptr %0, i64 16
  %36 = load ptr, ptr %35, align 8
  %37 = getelementptr inbounds nuw i8, ptr %36, i64 32
  store i32 1, ptr %37, align 8
  br label %43

38:                                               ; preds = %22
  tail call void @end_MultiFuncCall(ptr noundef nonnull %0, ptr noundef nonnull %23) #11
  %39 = getelementptr inbounds nuw i8, ptr %0, i64 16
  %40 = load ptr, ptr %39, align 8
  %41 = getelementptr inbounds nuw i8, ptr %40, i64 32
  store i32 2, ptr %41, align 8
  %42 = getelementptr inbounds nuw i8, ptr %0, i64 28
  store i8 1, ptr %42, align 4
  br label %43

43:                                               ; preds = %38, %31
  %.0 = phi i64 [ %.sroa.0.0.copyload, %31 ], [ 0, %38 ]
  ret i64 %.0
}